; Function Attrs: mustprogress nounwind uwtable
define internal fastcc void @_ZN9grpc_core13RefCountedPtrINS_12_GLOBAL__N_18RingHash6PickerEED2Ev(ptr %this.0.val) unnamed_addr #4 align 2 personality ptr @__gxx_personality_v0 {
entry:
  %cmp.not = icmp eq ptr %this.0.val, null
  br i1 %cmp.not, label %if.end, label %if.then

if.then:                                          ; preds = %entry
  %refs_.i = getelementptr inbounds i8, ptr %this.0.val, i64 8
  %0 = atomicrmw add ptr %refs_.i, i64 -4294967295 acq_rel, align 8
  %shr.i.mask.i = and i64 %0, -4294967296
  %cmp.i = icmp eq i64 %shr.i.mask.i, 4294967296
  br i1 %cmp.i, label %if.then.i, label %if.end.i

if.then.i:                                        ; preds = %if.then
  %vtable.i = load ptr, ptr %this.0.val, align 8
  %1 = load ptr, ptr %vtable.i, align 8
  invoke void %1(ptr noundef nonnull align 8 dereferenceable(8) %this.0.val)
          to label %if.end.i unwind label %terminate.lpad

if.end.i:                                         ; preds = %if.then.i, %if.then
  %2 = atomicrmw sub ptr %refs_.i, i64 1 acq_rel, align 8
  %cmp.not.i.i = icmp eq i64 %2, 1
  br i1 %cmp.not.i.i, label %delete.notnull.i.i, label %if.end

delete.notnull.i.i:                               ; preds = %if.end.i
  %vtable.i.i = load ptr, ptr %this.0.val, align 8
  %vfn.i.i = getelementptr inbounds i8, ptr %vtable.i.i, i64 16
  %3 = load ptr, ptr %vfn.i.i, align 8
  tail call void %3(ptr noundef nonnull align 8 dereferenceable(16) %this.0.val) #23
  br label %if.end

if.end:                                           ; preds = %delete.notnull.i.i, %if.end.i, %entry
  ret void

terminate.lpad:                                   ; preds = %if.then.i
  %4 = landingpad { ptr, i32 }
          catch ptr null
  %5 = extractvalue { ptr, i32 } %4, 0
  tail call void @__clang_call_terminate(ptr %5) #26
  unreachable
}